; Function Attrs: mustprogress uwtable
define noundef zeroext i1 @_ZNK8QuantLib27StrippedCappedFlooredCoupon8isCollarEv(ptr nocapture noundef nonnull readonly align 8 dereferenceable(192) %this) local_unnamed_addr #8 align 2 {
entry:
  %underlying_.i = getelementptr inbounds nuw i8, ptr %this, i64 176
  %0 = load ptr, ptr %underlying_.i, align 8, !tbaa !50
  %cmp.not.i.i = icmp eq ptr %0, null
  br i1 %cmp.not.i.i, label %cond.false.i.i, label %_ZNK8QuantLib27StrippedCappedFlooredCoupon5isCapEv.exit, !prof !52

cond.false.i.i:                                   ; preds = %entry
  tail call void @_ZN5boost16assertion_failedEPKcS1_S1_l(ptr noundef nonnull @.str.11, ptr noundef nonnull @__PRETTY_FUNCTION__._ZNK5boost10shared_ptrIN8QuantLib19CappedFlooredCouponEEptEv, ptr noundef nonnull @.str.12, i64 noundef 784)
  %.pre.i.i = load ptr, ptr %underlying_.i, align 8, !tbaa !50
  br label %_ZNK8QuantLib27StrippedCappedFlooredCoupon5isCapEv.exit

_ZNK8QuantLib27StrippedCappedFlooredCoupon5isCapEv.exit: ; preds = %entry, %cond.false.i.i
  %1 = phi ptr [ %0, %entry ], [ %.pre.i.i, %cond.false.i.i ]
  %isCapped_.i.i = getelementptr inbounds nuw i8, ptr %1, i64 192
  %2 = load i8, ptr %isCapped_.i.i, align 8, !tbaa !96, !range !26, !noundef !27
  %loadedv.i.i = trunc nuw i8 %2 to i1
  br i1 %loadedv.i.i, label %_ZNK8QuantLib27StrippedCappedFlooredCoupon7isFloorEv.exit, label %land.end

_ZNK8QuantLib27StrippedCappedFlooredCoupon7isFloorEv.exit: ; preds = %_ZNK8QuantLib27StrippedCappedFlooredCoupon5isCapEv.exit
  %isFloored_.i.i = getelementptr inbounds nuw i8, ptr %1, i64 193
  %3 = load i8, ptr %isFloored_.i.i, align 1, !tbaa !87, !range !26, !noundef !27
  %loadedv.i.i3 = trunc nuw i8 %3 to i1
  br label %land.end

land.end:                                         ; preds = %_ZNK8QuantLib27StrippedCappedFlooredCoupon7isFloorEv.exit, %_ZNK8QuantLib27StrippedCappedFlooredCoupon5isCapEv.exit
  %4 = phi i1 [ false, %_ZNK8QuantLib27StrippedCappedFlooredCoupon5isCapEv.exit ], [ %loadedv.i.i3, %_ZNK8QuantLib27StrippedCappedFlooredCoupon7isFloorEv.exit ]
  ret i1 %4
}